ccopy_reg
_reconstructor
p0
(cgoogle.oauth2.credentials
Credentials
p1
c__builtin__
object
p2
Ntp3
Rp4
(dp5
S'_token_uri'
p6
Vhttps://oauth2.googleapis.com/token
p7
sS'_scopes'
p8
(lp9
S'https://www.googleapis.com/auth/drive'
p10
asS'_id_token'
p11
NsS'token'
p12
Vya29.GlxhB-kACp_hafolT9xciEaA2APYbccH5t9xZOjMDJ0U75hw3Z0Ds3S8Pw2sWo_ke_d1SQQosPWbv26k5psHVbueXrZV4n05GIxlv5F548TVUX9nXJjaDLw_WGUN4g
p13
sS'_refresh_token'
p14
V1/HQjr8fTa0mgT5KFjXZRS10LYCJD830ka4cC9MlO0ukA
p15
sS'_client_secret'
p16
V8zNktjZD4R8hEbIH0LPecG8P
p17
sS'_client_id'
p18
V613694038403-a9vhfopuvfmaibqnarkjhd3v725lj5rc.apps.googleusercontent.com
p19
sS'expiry'
p20
cdatetime
datetime
p21
(S'\x07\xe3\x08\n\x17\x17\x1e\x0e8\x0b'
p22
tp23
Rp24
sb.